; ModuleID = '35/1482.c'
source_filename = "35/1482.c"
target datalayout = "e-m:e-p270:32:32-p271:32:32-p272:64:64-i64:64-f80:128-n8:16:32:64-S128"
target triple = "x86_64-pc-linux-gnu"

@.str = private unnamed_addr constant [7 x i8] c"%d%c%d\00", align 1
@.str.1 = private unnamed_addr constant [3 x i8] c"%d\00", align 1
@.str.2 = private unnamed_addr constant [6 x i8] c"%d+%d\00", align 1
@.str.3 = private unnamed_addr constant [3 x i8] c"No\00", align 1

; Function Attrs: noinline nounwind uwtable
define dso_local i32 @main() #0 {
  %1 = alloca i32, align 4
  %2 = alloca [8 x [8 x i32]], align 16
  %3 = alloca i32, align 4
  %4 = alloca i32, align 4
  %5 = alloca i32, align 4
  %6 = alloca i32, align 4
  %7 = alloca [8 x i32], align 16
  %8 = alloca i32, align 4
  %9 = alloca i32, align 4
  %10 = alloca i32, align 4
  %11 = alloca i8, align 1
  store i32 0, i32* %1, align 4
  %12 = call i32 (i8*, ...) @__isoc99_scanf(i8* getelementptr inbounds ([7 x i8], [7 x i8]* @.str, i64 0, i64 0), i32* %5, i8* %11, i32* %6)
  store i32 0, i32* %10, align 4
  store i32 0, i32* %3, align 4
  br label %13

13:                                               ; preds = %37, %0
  %14 = load i32, i32* %3, align 4
  %15 = load i32, i32* %5, align 4
  %16 = icmp slt i32 %14, %15
  br i1 %16, label %17, label %40

17:                                               ; preds = %13
  store i32 0, i32* %4, align 4
  br label %18

18:                                               ; preds = %30, %17
  %19 = load i32, i32* %4, align 4
  %20 = load i32, i32* %6, align 4
  %21 = icmp slt i32 %19, %20
  br i1 %21, label %22, label %33

22:                                               ; preds = %18
  %23 = load i32, i32* %3, align 4
  %24 = sext i32 %23 to i64
  %25 = getelementptr inbounds [8 x [8 x i32]], [8 x [8 x i32]]* %2, i64 0, i64 %24
  %26 = load i32, i32* %4, align 4
  %27 = sext i32 %26 to i64
  %28 = getelementptr inbounds [8 x i32], [8 x i32]* %25, i64 0, i64 %27
  %29 = call i32 (i8*, ...) @__isoc99_scanf(i8* getelementptr inbounds ([3 x i8], [3 x i8]* @.str.1, i64 0, i64 0), i32* %28)
  br label %30

30:                                               ; preds = %22
  %31 = load i32, i32* %4, align 4
  %32 = add nsw i32 %31, 1
  store i32 %32, i32* %4, align 4
  br label %18

33:                                               ; preds = %18
  %34 = load i32, i32* %3, align 4
  %35 = sext i32 %34 to i64
  %36 = getelementptr inbounds [8 x i32], [8 x i32]* %7, i64 0, i64 %35
  store i32 0, i32* %36, align 4
  br label %37

37:                                               ; preds = %33
  %38 = load i32, i32* %3, align 4
  %39 = add nsw i32 %38, 1
  store i32 %39, i32* %3, align 4
  br label %13

40:                                               ; preds = %13
  store i32 0, i32* %3, align 4
  br label %41

41:                                               ; preds = %132, %40
  %42 = load i32, i32* %3, align 4
  %43 = load i32, i32* %5, align 4
  %44 = icmp slt i32 %42, %43
  br i1 %44, label %45, label %135

45:                                               ; preds = %41
  store i32 1, i32* %8, align 4
  store i32 0, i32* %4, align 4
  br label %46

46:                                               ; preds = %75, %45
  %47 = load i32, i32* %4, align 4
  %48 = load i32, i32* %6, align 4
  %49 = icmp slt i32 %47, %48
  br i1 %49, label %50, label %78

50:                                               ; preds = %46
  %51 = load i32, i32* %3, align 4
  %52 = sext i32 %51 to i64
  %53 = getelementptr inbounds [8 x [8 x i32]], [8 x [8 x i32]]* %2, i64 0, i64 %52
  %54 = load i32, i32* %4, align 4
  %55 = sext i32 %54 to i64
  %56 = getelementptr inbounds [8 x i32], [8 x i32]* %53, i64 0, i64 %55
  %57 = load i32, i32* %56, align 4
  %58 = load i32, i32* %3, align 4
  %59 = sext i32 %58 to i64
  %60 = getelementptr inbounds [8 x i32], [8 x i32]* %7, i64 0, i64 %59
  %61 = load i32, i32* %60, align 4
  %62 = icmp sgt i32 %57, %61
  br i1 %62, label %63, label %74

63:                                               ; preds = %50
  %64 = load i32, i32* %3, align 4
  %65 = sext i32 %64 to i64
  %66 = getelementptr inbounds [8 x [8 x i32]], [8 x [8 x i32]]* %2, i64 0, i64 %65
  %67 = load i32, i32* %4, align 4
  %68 = sext i32 %67 to i64
  %69 = getelementptr inbounds [8 x i32], [8 x i32]* %66, i64 0, i64 %68
  %70 = load i32, i32* %69, align 4
  %71 = load i32, i32* %3, align 4
  %72 = sext i32 %71 to i64
  %73 = getelementptr inbounds [8 x i32], [8 x i32]* %7, i64 0, i64 %72
  store i32 %70, i32* %73, align 4
  br label %74

74:                                               ; preds = %63, %50
  br label %75

75:                                               ; preds = %74
  %76 = load i32, i32* %4, align 4
  %77 = add nsw i32 %76, 1
  store i32 %77, i32* %4, align 4
  br label %46

78:                                               ; preds = %46
  store i32 0, i32* %4, align 4
  br label %79

79:                                               ; preds = %128, %78
  %80 = load i32, i32* %4, align 4
  %81 = load i32, i32* %6, align 4
  %82 = icmp slt i32 %80, %81
  br i1 %82, label %83, label %131

83:                                               ; preds = %79
  %84 = load i32, i32* %3, align 4
  %85 = sext i32 %84 to i64
  %86 = getelementptr inbounds [8 x i32], [8 x i32]* %7, i64 0, i64 %85
  %87 = load i32, i32* %86, align 4
  %88 = load i32, i32* %3, align 4
  %89 = sext i32 %88 to i64
  %90 = getelementptr inbounds [8 x [8 x i32]], [8 x [8 x i32]]* %2, i64 0, i64 %89
  %91 = load i32, i32* %4, align 4
  %92 = sext i32 %91 to i64
  %93 = getelementptr inbounds [8 x i32], [8 x i32]* %90, i64 0, i64 %92
  %94 = load i32, i32* %93, align 4
  %95 = icmp eq i32 %87, %94
  br i1 %95, label %96, label %127

96:                                               ; preds = %83
  store i32 0, i32* %9, align 4
  br label %97

97:                                               ; preds = %116, %96
  %98 = load i32, i32* %9, align 4
  %99 = load i32, i32* %5, align 4
  %100 = icmp slt i32 %98, %99
  br i1 %100, label %101, label %119

101:                                              ; preds = %97
  %102 = load i32, i32* %3, align 4
  %103 = sext i32 %102 to i64
  %104 = getelementptr inbounds [8 x i32], [8 x i32]* %7, i64 0, i64 %103
  %105 = load i32, i32* %104, align 4
  %106 = load i32, i32* %9, align 4
  %107 = sext i32 %106 to i64
  %108 = getelementptr inbounds [8 x [8 x i32]], [8 x [8 x i32]]* %2, i64 0, i64 %107
  %109 = load i32, i32* %4, align 4
  %110 = sext i32 %109 to i64
  %111 = getelementptr inbounds [8 x i32], [8 x i32]* %108, i64 0, i64 %110
  %112 = load i32, i32* %111, align 4
  %113 = icmp sgt i32 %105, %112
  br i1 %113, label %114, label %115

114:                                              ; preds = %101
  store i32 0, i32* %8, align 4
  br label %115

115:                                              ; preds = %114, %101
  br label %116

116:                                              ; preds = %115
  %117 = load i32, i32* %9, align 4
  %118 = add nsw i32 %117, 1
  store i32 %118, i32* %9, align 4
  br label %97

119:                                              ; preds = %97
  %120 = load i32, i32* %8, align 4
  %121 = icmp eq i32 %120, 1
  br i1 %121, label %122, label %126

122:                                              ; preds = %119
  %123 = load i32, i32* %3, align 4
  %124 = load i32, i32* %4, align 4
  %125 = call i32 (i8*, ...) @printf(i8* getelementptr inbounds ([6 x i8], [6 x i8]* @.str.2, i64 0, i64 0), i32 %123, i32 %124)
  store i32 1, i32* %10, align 4
  br label %126

126:                                              ; preds = %122, %119
  br label %127

127:                                              ; preds = %126, %83
  br label %128

128:                                              ; preds = %127
  %129 = load i32, i32* %4, align 4
  %130 = add nsw i32 %129, 1
  store i32 %130, i32* %4, align 4
  br label %79

131:                                              ; preds = %79
  br label %132

132:                                              ; preds = %131
  %133 = load i32, i32* %3, align 4
  %134 = add nsw i32 %133, 1
  store i32 %134, i32* %3, align 4
  br label %41

135:                                              ; preds = %41
  %136 = load i32, i32* %10, align 4
  %137 = icmp eq i32 %136, 0
  br i1 %137, label %138, label %140

138:                                              ; preds = %135
  %139 = call i32 (i8*, ...) @printf(i8* getelementptr inbounds ([3 x i8], [3 x i8]* @.str.3, i64 0, i64 0))
  br label %140

140:                                              ; preds = %138, %135
  ret i32 0
}

declare dso_local i32 @__isoc99_scanf(i8*, ...) #1

declare dso_local i32 @printf(i8*, ...) #1


!llvm.module.flags = !{!0}
!llvm.ident = !{!1}

!0 = !{i32 1, !"wchar_size", i32 4}
!1 = !{!"clang version 10.0.0-4ubuntu1 "}
